; ModuleID = '36/442.c'
source_filename = "36/442.c"
target datalayout = "e-m:e-p270:32:32-p271:32:32-p272:64:64-i64:64-f80:128-n8:16:32:64-S128"
target triple = "x86_64-pc-linux-gnu"

@.str = private unnamed_addr constant [3 x i8] c"%s\00", align 1
@.str.1 = private unnamed_addr constant [4 x i8] c"NO\0A\00", align 1
@.str.2 = private unnamed_addr constant [5 x i8] c"YES\0A\00", align 1

; Function Attrs: noinline nounwind uwtable
define dso_local i32 @search(i8* %0, i8* %1, i32 %2, i32 %3) #0 {
  %5 = alloca i32, align 4
  %6 = alloca i8*, align 8
  %7 = alloca i8*, align 8
  %8 = alloca i32, align 4
  %9 = alloca i32, align 4
  %10 = alloca i32, align 4
  store i8* %0, i8** %6, align 8
  store i8* %1, i8** %7, align 8
  store i32 %2, i32* %8, align 4
  store i32 %3, i32* %9, align 4
  store i32 0, i32* %10, align 4
  br label %11

11:                                               ; preds = %37, %4
  %12 = load i32, i32* %10, align 4
  %13 = load i32, i32* %9, align 4
  %14 = sub nsw i32 %13, 1
  %15 = icmp sle i32 %12, %14
  br i1 %15, label %16, label %40

16:                                               ; preds = %11
  %17 = load i8*, i8** %7, align 8
  %18 = load i32, i32* %10, align 4
  %19 = sext i32 %18 to i64
  %20 = getelementptr inbounds i8, i8* %17, i64 %19
  %21 = load i8, i8* %20, align 1
  %22 = sext i8 %21 to i32
  %23 = load i8*, i8** %6, align 8
  %24 = load i32, i32* %8, align 4
  %25 = sext i32 %24 to i64
  %26 = getelementptr inbounds i8, i8* %23, i64 %25
  %27 = load i8, i8* %26, align 1
  %28 = sext i8 %27 to i32
  %29 = icmp eq i32 %22, %28
  br i1 %29, label %30, label %36

30:                                               ; preds = %16
  %31 = load i8*, i8** %7, align 8
  %32 = load i32, i32* %10, align 4
  %33 = sext i32 %32 to i64
  %34 = getelementptr inbounds i8, i8* %31, i64 %33
  store i8 48, i8* %34, align 1
  %35 = load i32, i32* %10, align 4
  store i32 %35, i32* %5, align 4
  br label %41

36:                                               ; preds = %16
  br label %37

37:                                               ; preds = %36
  %38 = load i32, i32* %10, align 4
  %39 = add nsw i32 %38, 1
  store i32 %39, i32* %10, align 4
  br label %11

40:                                               ; preds = %11
  store i32 -1, i32* %5, align 4
  br label %41

41:                                               ; preds = %40, %30
  %42 = load i32, i32* %5, align 4
  ret i32 %42
}

; Function Attrs: noinline nounwind uwtable
define dso_local i32 @main(i32 %0, i8** %1) #0 {
  %3 = alloca i32, align 4
  %4 = alloca i32, align 4
  %5 = alloca i8**, align 8
  %6 = alloca [30 x i8], align 16
  %7 = alloca [30 x i8], align 16
  %8 = alloca i32, align 4
  %9 = alloca i32, align 4
  %10 = alloca i32, align 4
  %11 = alloca i32, align 4
  %12 = alloca i32, align 4
  store i32 0, i32* %3, align 4
  store i32 %0, i32* %4, align 4
  store i8** %1, i8*** %5, align 8
  %13 = getelementptr inbounds [30 x i8], [30 x i8]* %6, i64 0, i64 0
  %14 = call i32 (i8*, ...) @__isoc99_scanf(i8* getelementptr inbounds ([3 x i8], [3 x i8]* @.str, i64 0, i64 0), i8* %13)
  %15 = getelementptr inbounds [30 x i8], [30 x i8]* %7, i64 0, i64 0
  %16 = call i32 (i8*, ...) @__isoc99_scanf(i8* getelementptr inbounds ([3 x i8], [3 x i8]* @.str, i64 0, i64 0), i8* %15)
  %17 = getelementptr inbounds [30 x i8], [30 x i8]* %6, i64 0, i64 0
  %18 = call i64 @strlen(i8* %17) #3
  %19 = trunc i64 %18 to i32
  store i32 %19, i32* %8, align 4
  %20 = getelementptr inbounds [30 x i8], [30 x i8]* %7, i64 0, i64 0
  %21 = call i64 @strlen(i8* %20) #3
  %22 = trunc i64 %21 to i32
  store i32 %22, i32* %12, align 4
  %23 = load i32, i32* %8, align 4
  %24 = load i32, i32* %12, align 4
  %25 = icmp ne i32 %23, %24
  br i1 %25, label %26, label %28

26:                                               ; preds = %2
  %27 = call i32 (i8*, ...) @printf(i8* getelementptr inbounds ([4 x i8], [4 x i8]* @.str.1, i64 0, i64 0))
  br label %54

28:                                               ; preds = %2
  store i32 0, i32* %9, align 4
  br label %29

29:                                               ; preds = %45, %28
  %30 = load i32, i32* %9, align 4
  %31 = load i32, i32* %8, align 4
  %32 = sub nsw i32 %31, 1
  %33 = icmp sle i32 %30, %32
  br i1 %33, label %34, label %48

34:                                               ; preds = %29
  %35 = getelementptr inbounds [30 x i8], [30 x i8]* %6, i64 0, i64 0
  %36 = getelementptr inbounds [30 x i8], [30 x i8]* %7, i64 0, i64 0
  %37 = load i32, i32* %9, align 4
  %38 = load i32, i32* %8, align 4
  %39 = call i32 @search(i8* %35, i8* %36, i32 %37, i32 %38)
  store i32 %39, i32* %11, align 4
  %40 = load i32, i32* %11, align 4
  %41 = icmp eq i32 %40, -1
  br i1 %41, label %42, label %44

42:                                               ; preds = %34
  %43 = call i32 (i8*, ...) @printf(i8* getelementptr inbounds ([4 x i8], [4 x i8]* @.str.1, i64 0, i64 0))
  br label %48

44:                                               ; preds = %34
  br label %45

45:                                               ; preds = %44
  %46 = load i32, i32* %9, align 4
  %47 = add nsw i32 %46, 1
  store i32 %47, i32* %9, align 4
  br label %29

48:                                               ; preds = %42, %29
  %49 = load i32, i32* %11, align 4
  %50 = icmp ne i32 %49, -1
  br i1 %50, label %51, label %53

51:                                               ; preds = %48
  %52 = call i32 (i8*, ...) @printf(i8* getelementptr inbounds ([5 x i8], [5 x i8]* @.str.2, i64 0, i64 0))
  br label %53

53:                                               ; preds = %51, %48
  br label %54

54:                                               ; preds = %53, %26
  ret i32 0
}

declare dso_local i32 @__isoc99_scanf(i8*, ...) #1

; Function Attrs: nounwind readonly
declare dso_local i64 @strlen(i8*) #2

declare dso_local i32 @printf(i8*, ...) #1


!llvm.module.flags = !{!0}
!llvm.ident = !{!1}

!0 = !{i32 1, !"wchar_size", i32 4}
!1 = !{!"clang version 10.0.0-4ubuntu1 "}
